TN:
SF:/home/xie/github-wsl/lpue/KVStore/src/cache.cpp
FN:6,_ZN15LRUCacheSegmentC2Em
FNDA:53,_ZN15LRUCacheSegmentC2Em
FN:9,_ZN15LRUCacheSegment3getEiRNSt7__cxx1112basic_stringIcSt11char_traitsIcESaIcEEE
FNDA:1033,_ZN15LRUCacheSegment3getEiRNSt7__cxx1112basic_stringIcSt11char_traitsIcESaIcEEE
FN:24,_ZN15LRUCacheSegment3putEiRKNSt7__cxx1112basic_stringIcSt11char_traitsIcESaIcEEE
FNDA:2027,_ZN15LRUCacheSegment3putEiRKNSt7__cxx1112basic_stringIcSt11char_traitsIcESaIcEEE
FN:50,_ZN15LRUCacheSegment6removeEi
FNDA:12,_ZN15LRUCacheSegment6removeEi
FN:62,_ZN8LRUCacheC2Emm
FNDA:7,_ZN8LRUCacheC2Emm
FN:77,_ZN8LRUCache15getSegmentIndexEi
FNDA:3070,_ZN8LRUCache15getSegmentIndexEi
FN:83,_ZN8LRUCache3getEiRNSt7__cxx1112basic_stringIcSt11char_traitsIcESaIcEEE
FNDA:1035,_ZN8LRUCache3getEiRNSt7__cxx1112basic_stringIcSt11char_traitsIcESaIcEEE
FN:90,_ZN8LRUCache3putEiRKNSt7__cxx1112basic_stringIcSt11char_traitsIcESaIcEEE
FNDA:2024,_ZN8LRUCache3putEiRKNSt7__cxx1112basic_stringIcSt11char_traitsIcESaIcEEE
FN:97,_ZN8LRUCache6removeEi
FNDA:12,_ZN8LRUCache6removeEi
DA:6,53
DA:9,1033
DA:11,1033
DA:12,1033
DA:13,1033
DA:18,22
DA:19,1055
DA:21,1035
DA:24,2027
DA:26,2027
DA:27,2028
DA:28,2028
DA:31,1
DA:32,1
DA:37,2027
DA:39,1904
DA:40,1902
DA:41,1890
DA:42,1898
DA:44,2021
DA:45,2014
DA:47,2026
DA:50,12
DA:52,12
DA:53,12
DA:54,12
DA:56,12
DA:57,12
DA:59,12
DA:62,7
DA:63,7
DA:65,7
DA:66,7
DA:68,0
DA:70,60
DA:72,53
DA:74,7
DA:77,3070
DA:79,3070
DA:83,1035
DA:85,1035
DA:86,1035
DA:90,2024
DA:92,2024
DA:93,2028
DA:94,2028
DA:97,12
DA:99,12
DA:100,12
DA:101,12
end_of_record
SF:/home/xie/github-wsl/lpue/KVStore/include/cache.h
FN:15,_ZN15LRUCacheSegmentD2Ev
FNDA:53,_ZN15LRUCacheSegmentD2Ev
DA:15,106
end_of_record
TN:
SF:/home/xie/github-wsl/lpue/KVStore/src/thread_pool.cpp
FN:3,_ZN10ThreadPoolC2Em
FNDA:7,_ZN10ThreadPoolC2Em
FN:11,_ZN10ThreadPoolD2Ev
FNDA:7,_ZN10ThreadPoolD2Ev
FN:28,_ZN10ThreadPool6submitERKSt8functionIFvvEE
FNDA:2003,_ZN10ThreadPool6submitERKSt8functionIFvvEE
FN:38,_ZN10ThreadPool6workerEv
FNDA:32,_ZN10ThreadPool6workerEv
FN:45,_ZZN10ThreadPool6workerEvENKUlvE_clEv
FNDA:2289,_ZZN10ThreadPool6workerEvENKUlvE_clEv
FN:61,_ZN10ThreadPool19incrementTasksCountEv
FNDA:2003,_ZN10ThreadPool19incrementTasksCountEv
FN:67,_ZN10ThreadPool19decrementTasksCountEv
FNDA:1994,_ZN10ThreadPool19decrementTasksCountEv
FN:77,_ZN10ThreadPool12waitAllTasksEv
FNDA:7,_ZN10ThreadPool12waitAllTasksEv
DA:3,7
DA:5,39
DA:7,32
DA:9,7
DA:11,7
DA:13,7
DA:14,7
DA:15,7
DA:16,7
DA:17,7
DA:19,39
DA:21,32
DA:23,32
DA:26,7
DA:28,2003
DA:30,2003
DA:31,2003
DA:32,2003
DA:33,2003
DA:34,2003
DA:35,2003
DA:36,2003
DA:38,32
DA:40,2028
DA:42,2028
DA:43,2028
DA:44,2028
DA:45,2035
DA:46,2289
DA:48,2035
DA:50,32
DA:53,2003
DA:54,2003
DA:55,32
DA:56,2003
DA:57,2000
DA:58,2028
DA:61,2003
DA:63,2003
DA:64,2003
DA:65,2003
DA:67,1994
DA:69,1994
DA:70,2003
DA:71,2003
DA:73,93
DA:75,2003
DA:77,7
DA:79,7
DA:80,14
DA:81,7
DA:82,7
end_of_record
TN:
SF:/home/xie/github-wsl/lpue/KVStore/tests/test_main.cpp
FN:3,main
FNDA:1,main
DA:3,1
DA:5,1
DA:6,1
end_of_record
TN:
SF:/home/xie/github-wsl/lpue/KVStore/include/file_store.h
DA:14,0
end_of_record
SF:/home/xie/github-wsl/lpue/KVStore/src/file_store.cpp
FN:10,_ZN9FileStoreC2ERKNSt7__cxx1112basic_stringIcSt11char_traitsIcESaIcEEEb
FNDA:7,_ZN9FileStoreC2ERKNSt7__cxx1112basic_stringIcSt11char_traitsIcESaIcEEEb
FN:49,_ZN9FileStoreD2Ev
FNDA:7,_ZN9FileStoreD2Ev
FN:67,_ZN9FileStore13startGCThreadEv
FNDA:7,_ZN9FileStore13startGCThreadEv
FN:74,_ZZN9FileStore13startGCThreadEvENKUlvE_clEv
FNDA:7,_ZZN9FileStore13startGCThreadEvENKUlvE_clEv
FN:82,_ZNK9FileStore12getReadCountEv
FNDA:9,_ZNK9FileStore12getReadCountEv
FN:88,_ZN9FileStore3putEiRKNSt7__cxx1112basic_stringIcSt11char_traitsIcESaIcEEE
FNDA:1029,_ZN9FileStore3putEiRKNSt7__cxx1112basic_stringIcSt11char_traitsIcESaIcEEE
FN:116,_ZN9FileStore3getB5cxx11Ei
FNDA:1012,_ZN9FileStore3getB5cxx11Ei
FN:147,_ZN9FileStore3delEi
FNDA:12,_ZN9FileStore3delEi
FN:164,_ZN9FileStore14garbageCollectEv
FNDA:8,_ZN9FileStore14garbageCollectEv
FN:193,_ZN9FileStore11compactFileERKSt6vectorI10ObjectMetaSaIS1_EE
FNDA:8,_ZN9FileStore11compactFileERKSt6vectorI10ObjectMetaSaIS1_EE
FN:247,_ZN9FileStore9loadIndexEv
FNDA:7,_ZN9FileStore9loadIndexEv
FN:284,_ZN9FileStore9saveIndexEv
FNDA:7,_ZN9FileStore9saveIndexEv
FN:309,_ZN9FileStore16printFileContextEv
FNDA:0,_ZN9FileStore16printFileContextEv
DA:10,7
DA:11,7
DA:13,7
DA:15,0
DA:17,0
DA:19,0
DA:20,0
DA:22,0
DA:24,0
DA:27,7
DA:29,7
DA:30,7
DA:31,7
DA:33,7
DA:34,7
DA:35,7
DA:36,7
DA:38,7
DA:40,0
DA:43,7
DA:46,7
DA:47,7
DA:49,7
DA:51,7
DA:53,7
DA:55,7
DA:58,7
DA:60,7
DA:63,7
DA:64,14
DA:67,7
DA:69,7
DA:74,14
DA:76,14
DA:77,7
DA:78,7
DA:79,7
DA:82,9
DA:84,9
DA:88,1029
DA:91,1029
DA:94,1029
DA:95,1029
DA:96,1029
DA:97,1029
DA:98,1029
DA:99,1029
DA:100,1029
DA:102,0
DA:103,0
DA:105,1029
DA:106,1029
DA:107,0
DA:110,1029
DA:112,1029
DA:113,1029
DA:116,1012
DA:119,1012
DA:120,1014
DA:121,1014
DA:123,12
DA:126,1002
DA:129,1002
DA:130,1002
DA:131,1001
DA:132,1001
DA:133,1002
DA:134,1002
DA:135,1002
DA:137,0
DA:138,0
DA:140,1002
DA:141,0
DA:143,2002
DA:144,1012
DA:147,12
DA:150,12
DA:151,12
DA:152,12
DA:158,12
DA:160,12
DA:161,12
DA:164,8
DA:170,8
DA:171,8
DA:173,8
DA:176,1046
DA:178,1038
DA:179,1038
DA:181,1026
DA:186,8
DA:190,8
DA:193,8
DA:195,8
DA:197,8
DA:198,8
DA:200,0
DA:201,0
DA:204,8
DA:205,8
DA:208,1034
DA:210,1026
DA:211,1026
DA:214,1026
DA:215,1026
DA:218,1026
DA:221,1026
DA:222,1026
DA:224,1026
DA:225,1026
DA:226,1026
DA:229,8
DA:232,8
DA:233,8
DA:236,8
DA:237,8
DA:239,0
DA:243,8
DA:244,8
DA:245,8
DA:247,7
DA:249,7
DA:250,7
DA:252,7
DA:254,7
DA:255,7
DA:259,0
DA:260,0
DA:262,0
DA:264,0
DA:265,0
DA:266,0
DA:270,0
DA:271,0
DA:273,0
DA:274,0
DA:275,0
DA:277,0
DA:281,0
DA:282,7
DA:284,7
DA:286,7
DA:287,7
DA:289,7
DA:291,0
DA:292,0
DA:296,7
DA:297,7
DA:300,1023
DA:302,1016
DA:303,1016
DA:306,7
DA:307,7
DA:309,0
DA:311,0
DA:312,0
DA:314,0
DA:315,0
DA:318,0
DA:319,0
DA:320,0
DA:322,0
DA:325,0
DA:326,0
end_of_record
TN:
SF:/home/xie/github-wsl/lpue/KVStore/tests/engine_test.cpp
FN:14,_ZN10EngineTest5SetUpEv
FNDA:7,_ZN10EngineTest5SetUpEv
FN:27,_ZN10EngineTest8TearDownEv
FNDA:7,_ZN10EngineTest8TearDownEv
FN:42,_ZN27EngineTest_BasicPutGet_TestD2Ev
FNDA:0,_ZN27EngineTest_BasicPutGet_TestD2Ev
FN:42,_ZN27EngineTest_BasicPutGet_Test8TestBodyEv
FNDA:1,_ZN27EngineTest_BasicPutGet_Test8TestBodyEv
FN:42,_ZN27EngineTest_BasicPutGet_TestD0Ev
FNDA:1,_ZN27EngineTest_BasicPutGet_TestD0Ev
FN:61,_ZN27EngineTest_BasicDelete_TestD0Ev
FNDA:1,_ZN27EngineTest_BasicDelete_TestD0Ev
FN:61,_ZN27EngineTest_BasicDelete_TestD2Ev
FNDA:0,_ZN27EngineTest_BasicDelete_TestD2Ev
FN:61,_ZN27EngineTest_BasicDelete_Test8TestBodyEv
FNDA:1,_ZN27EngineTest_BasicDelete_Test8TestBodyEv
FN:75,_ZN24EngineTest_CacheHit_TestD2Ev
FNDA:0,_ZN24EngineTest_CacheHit_TestD2Ev
FN:75,_ZN24EngineTest_CacheHit_Test8TestBodyEv
FNDA:1,_ZN24EngineTest_CacheHit_Test8TestBodyEv
FN:75,_ZN24EngineTest_CacheHit_TestD0Ev
FNDA:1,_ZN24EngineTest_CacheHit_TestD0Ev
FN:96,_ZN27EngineTest_LRUBehavior_TestD0Ev
FNDA:1,_ZN27EngineTest_LRUBehavior_TestD0Ev
FN:96,_ZN27EngineTest_LRUBehavior_TestD2Ev
FNDA:0,_ZN27EngineTest_LRUBehavior_TestD2Ev
FN:96,_ZN27EngineTest_LRUBehavior_Test8TestBodyEv
FNDA:1,_ZN27EngineTest_LRUBehavior_Test8TestBodyEv
FN:150,_ZN31EngineTest_AsyncOperations_TestD0Ev
FNDA:1,_ZN31EngineTest_AsyncOperations_TestD0Ev
FN:150,_ZN31EngineTest_AsyncOperations_TestD2Ev
FNDA:0,_ZN31EngineTest_AsyncOperations_TestD2Ev
FN:150,_ZN31EngineTest_AsyncOperations_Test8TestBodyEv
FNDA:1,_ZN31EngineTest_AsyncOperations_Test8TestBodyEv
FN:158,_ZZN31EngineTest_AsyncOperations_Test8TestBodyEvENKUlbE_clEb
FNDA:1,_ZZN31EngineTest_AsyncOperations_Test8TestBodyEvENKUlbE_clEb
FN:169,_ZZN31EngineTest_AsyncOperations_Test8TestBodyEvENKUlNSt7__cxx1112basic_stringIcSt11char_traitsIcESaIcEEEE0_clES5_
FNDA:1,_ZZN31EngineTest_AsyncOperations_Test8TestBodyEvENKUlNSt7__cxx1112basic_stringIcSt11char_traitsIcESaIcEEEE0_clES5_
FN:179,_ZZN31EngineTest_AsyncOperations_Test8TestBodyEvENKUlbE1_clEb
FNDA:1,_ZZN31EngineTest_AsyncOperations_Test8TestBodyEvENKUlbE1_clEb
FN:195,_ZN34EngineTest_GarbageCollectTest_TestD0Ev
FNDA:1,_ZN34EngineTest_GarbageCollectTest_TestD0Ev
FN:195,_ZN34EngineTest_GarbageCollectTest_Test8TestBodyEv
FNDA:1,_ZN34EngineTest_GarbageCollectTest_Test8TestBodyEv
FN:195,_ZN34EngineTest_GarbageCollectTest_TestD2Ev
FNDA:0,_ZN34EngineTest_GarbageCollectTest_TestD2Ev
FN:230,_ZN32EngineTest_ConcurrentAccess_Test8TestBodyEv
FNDA:1,_ZN32EngineTest_ConcurrentAccess_Test8TestBodyEv
FN:230,_ZN32EngineTest_ConcurrentAccess_TestD2Ev
FNDA:0,_ZN32EngineTest_ConcurrentAccess_TestD2Ev
FN:230,_ZN32EngineTest_ConcurrentAccess_TestD0Ev
FNDA:1,_ZN32EngineTest_ConcurrentAccess_TestD0Ev
FN:241,_ZZN32EngineTest_ConcurrentAccess_Test8TestBodyEvENKUlbE_clEb
FNDA:998,_ZZN32EngineTest_ConcurrentAccess_Test8TestBodyEvENKUlbE_clEb
FN:256,_ZZN32EngineTest_ConcurrentAccess_Test8TestBodyEvENKUlNSt7__cxx1112basic_stringIcSt11char_traitsIcESaIcEEEE0_clES5_
FNDA:990,_ZZN32EngineTest_ConcurrentAccess_Test8TestBodyEvENKUlNSt7__cxx1112basic_stringIcSt11char_traitsIcESaIcEEEE0_clES5_
DA:11,14
DA:14,7
DA:17,14
DA:19,2
DA:21,14
DA:23,0
DA:25,7
DA:27,7
DA:30,14
DA:32,14
DA:34,14
DA:36,14
DA:38,7
DA:42,1
DA:42,0
DA:42,1
DA:44,1
DA:45,1
DA:46,1
DA:48,1
DA:49,1
DA:52,1
DA:53,1
DA:56,2
DA:57,2
DA:58,1
DA:42,1
DA:61,1
DA:61,0
DA:61,1
DA:63,1
DA:64,1
DA:65,1
DA:66,1
DA:68,1
DA:69,1
DA:70,1
DA:71,2
DA:72,1
DA:61,1
DA:75,1
DA:75,0
DA:75,1
DA:77,1
DA:80,1
DA:81,1
DA:82,1
DA:85,1
DA:88,2
DA:89,1
DA:91,1
DA:92,2
DA:93,1
DA:75,1
DA:96,1
DA:96,0
DA:96,1
DA:98,1
DA:101,1
DA:102,1
DA:105,1
DA:106,1
DA:107,1
DA:110,1
DA:113,2
DA:114,2
DA:115,2
DA:118,1
DA:121,2
DA:124,1
DA:127,1
DA:130,2
DA:133,1
DA:136,2
DA:139,1
DA:142,2
DA:143,2
DA:146,1
DA:147,1
DA:96,1
DA:150,1
DA:150,0
DA:150,1
DA:152,1
DA:154,1
DA:155,1
DA:156,1
DA:158,2
DA:164,2
DA:166,1
DA:169,1
DA:174,2
DA:176,1
DA:179,1
DA:184,2
DA:186,1
DA:190,1
DA:191,2
DA:192,1
DA:150,1
DA:158,2
DA:160,1
DA:161,1
DA:169,2
DA:171,1
DA:172,1
DA:179,2
DA:181,1
DA:182,1
DA:195,1
DA:195,0
DA:195,1
DA:197,1
DA:200,21
DA:202,40
DA:206,11
DA:208,10
DA:212,1
DA:215,11
DA:217,10
DA:218,30
DA:219,10
DA:222,11
DA:224,10
DA:225,20
DA:226,10
DA:227,1
DA:195,1
DA:230,1
DA:230,0
DA:230,1
DA:232,1
DA:234,1
DA:235,1
DA:236,1
DA:239,1001
DA:241,2000
DA:248,2
DA:250,1
DA:254,1001
DA:256,2000
DA:262,2
DA:264,1
DA:266,1
DA:230,1
DA:241,1996
DA:243,998
DA:244,998
DA:256,1980
DA:258,1981
DA:259,990
end_of_record
TN:
SF:/home/xie/github-wsl/lpue/KVStore/include/cache.h
FN:15,_ZN15LRUCacheSegmentD2Ev
FNDA:0,_ZN15LRUCacheSegmentD2Ev
DA:15,0
DA:33,7
end_of_record
SF:/home/xie/github-wsl/lpue/KVStore/src/engine.cpp
FN:5,_ZN13StorageEngineC2ERKNSt7__cxx1112basic_stringIcSt11char_traitsIcESaIcEEEmmm
FNDA:7,_ZN13StorageEngineC2ERKNSt7__cxx1112basic_stringIcSt11char_traitsIcESaIcEEEmmm
FN:10,_ZN13StorageEngineD2Ev
FNDA:7,_ZN13StorageEngineD2Ev
FN:16,_ZN13StorageEngine4stopEv
FNDA:7,_ZN13StorageEngine4stopEv
FN:22,_ZN13StorageEngine8asyncPutEiRKNSt7__cxx1112basic_stringIcSt11char_traitsIcESaIcEEESt8functionIFvbEE
FNDA:1001,_ZN13StorageEngine8asyncPutEiRKNSt7__cxx1112basic_stringIcSt11char_traitsIcESaIcEEESt8functionIFvbEE
FN:30,_ZZN13StorageEngine8asyncPutEiRKNSt7__cxx1112basic_stringIcSt11char_traitsIcESaIcEEESt8functionIFvbEEENKUlvE_clEv
FNDA:1001,_ZZN13StorageEngine8asyncPutEiRKNSt7__cxx1112basic_stringIcSt11char_traitsIcESaIcEEESt8functionIFvbEEENKUlvE_clEv
FN:38,_ZN13StorageEngine8asyncGetEiSt8functionIFvNSt7__cxx1112basic_stringIcSt11char_traitsIcESaIcEEEEE
FNDA:1001,_ZN13StorageEngine8asyncGetEiSt8functionIFvNSt7__cxx1112basic_stringIcSt11char_traitsIcESaIcEEEEE
FN:44,_ZZN13StorageEngine8asyncGetEiSt8functionIFvNSt7__cxx1112basic_stringIcSt11char_traitsIcESaIcEEEEEENKUlvE_clEv
FNDA:999,_ZZN13StorageEngine8asyncGetEiSt8functionIFvNSt7__cxx1112basic_stringIcSt11char_traitsIcESaIcEEEEEENKUlvE_clEv
FN:52,_ZN13StorageEngine8asyncDelEiSt8functionIFvbEE
FNDA:1,_ZN13StorageEngine8asyncDelEiSt8functionIFvbEE
FN:60,_ZZN13StorageEngine8asyncDelEiSt8functionIFvbEEENKUlvE_clEv
FNDA:1,_ZZN13StorageEngine8asyncDelEiSt8functionIFvbEEENKUlvE_clEv
FN:68,_ZN13StorageEngine3putEiRKNSt7__cxx1112basic_stringIcSt11char_traitsIcESaIcEEE
FNDA:1029,_ZN13StorageEngine3putEiRKNSt7__cxx1112basic_stringIcSt11char_traitsIcESaIcEEE
FN:81,_ZN13StorageEngine3getB5cxx11Ei
FNDA:1036,_ZN13StorageEngine3getB5cxx11Ei
FN:97,_ZN13StorageEngine3delEi
FNDA:12,_ZN13StorageEngine3delEi
FN:103,_ZNK13StorageEngine21getFileStoreReadCountEv
FNDA:9,_ZNK13StorageEngine21getFileStoreReadCountEv
FN:108,_ZN13StorageEngine14garbageCollectEv
FNDA:1,_ZN13StorageEngine14garbageCollectEv
DA:5,7
DA:6,7
DA:8,7
DA:10,7
DA:12,7
DA:13,7
DA:14,7
DA:16,7
DA:18,7
DA:19,7
DA:22,1001
DA:24,1001
DA:26,0
DA:27,0
DA:28,0
DA:30,5000
DA:32,1001
DA:33,1000
DA:34,1000
DA:35,1000
DA:38,1001
DA:40,1001
DA:44,6992
DA:46,999
DA:47,998
DA:48,1997
DA:49,999
DA:52,1
DA:54,1
DA:56,0
DA:57,0
DA:58,0
DA:60,7
DA:62,1
DA:63,1
DA:64,1
DA:65,1
DA:68,1029
DA:71,1029
DA:77,1029
DA:78,1029
DA:81,1036
DA:83,1036
DA:84,1036
DA:89,1013
DA:90,1013
DA:92,1001
DA:95,0
DA:97,12
DA:99,12
DA:100,12
DA:103,9
DA:105,9
DA:108,1
DA:110,1
DA:111,1
end_of_record
